; Function Attrs: nounwind uwtable
define internal void @write_file_trailer(ptr noundef %0) #0 {
  %2 = getelementptr inbounds nuw i8, ptr %0, i64 40
  %3 = load ptr, ptr %2, align 8, !tbaa !38
  %4 = load ptr, ptr %3, align 8, !tbaa !39
  %5 = getelementptr inbounds nuw i8, ptr %4, i64 1
  store ptr %5, ptr %3, align 8, !tbaa !39
  store i8 -1, ptr %4, align 1, !tbaa !42
  %6 = getelementptr inbounds nuw i8, ptr %3, i64 8
  %7 = load i64, ptr %6, align 8, !tbaa !43
  %8 = add i64 %7, -1
  store i64 %8, ptr %6, align 8, !tbaa !43
  %9 = icmp eq i64 %8, 0
  br i1 %9, label %10, label %emit_byte.exit.i

10:                                               ; preds = %1
  %11 = getelementptr inbounds nuw i8, ptr %3, i64 24
  %12 = load ptr, ptr %11, align 8, !tbaa !44
  %13 = tail call i32 %12(ptr noundef nonnull %0) #3
  %.not.i.i = icmp eq i32 %13, 0
  br i1 %.not.i.i, label %14, label %emit_byte.exit.i

14:                                               ; preds = %10
  %15 = load ptr, ptr %0, align 8, !tbaa !45
  %16 = getelementptr inbounds nuw i8, ptr %15, i64 40
  store i32 24, ptr %16, align 8, !tbaa !46
  %17 = load ptr, ptr %15, align 8, !tbaa !49
  tail call void %17(ptr noundef nonnull %0) #3
  br label %emit_byte.exit.i

emit_byte.exit.i:                                 ; preds = %14, %10, %1
  %18 = load ptr, ptr %2, align 8, !tbaa !38
  %19 = load ptr, ptr %18, align 8, !tbaa !39
  %20 = getelementptr inbounds nuw i8, ptr %19, i64 1
  store ptr %20, ptr %18, align 8, !tbaa !39
  store i8 -39, ptr %19, align 1, !tbaa !42
  %21 = getelementptr inbounds nuw i8, ptr %18, i64 8
  %22 = load i64, ptr %21, align 8, !tbaa !43
  %23 = add i64 %22, -1
  store i64 %23, ptr %21, align 8, !tbaa !43
  %24 = icmp eq i64 %23, 0
  br i1 %24, label %25, label %emit_marker.exit

25:                                               ; preds = %emit_byte.exit.i
  %26 = getelementptr inbounds nuw i8, ptr %18, i64 24
  %27 = load ptr, ptr %26, align 8, !tbaa !44
  %28 = tail call i32 %27(ptr noundef nonnull %0) #3
  %.not.i2.i = icmp eq i32 %28, 0
  br i1 %.not.i2.i, label %29, label %emit_marker.exit

29:                                               ; preds = %25
  %30 = load ptr, ptr %0, align 8, !tbaa !45
  %31 = getelementptr inbounds nuw i8, ptr %30, i64 40
  store i32 24, ptr %31, align 8, !tbaa !46
  %32 = load ptr, ptr %30, align 8, !tbaa !49
  tail call void %32(ptr noundef nonnull %0) #3
  br label %emit_marker.exit

emit_marker.exit:                                 ; preds = %emit_byte.exit.i, %25, %29
  ret void
}